; ModuleID = '36/1289.c'
source_filename = "36/1289.c"
target datalayout = "e-m:e-p270:32:32-p271:32:32-p272:64:64-i64:64-f80:128-n8:16:32:64-S128"
target triple = "x86_64-pc-linux-gnu"

@.str = private unnamed_addr constant [6 x i8] c"%s %s\00", align 1
@.str.1 = private unnamed_addr constant [3 x i8] c"NO\00", align 1
@.str.2 = private unnamed_addr constant [4 x i8] c"YES\00", align 1

; Function Attrs: noinline nounwind uwtable
define dso_local i32 @main(i32 %0, i8** %1) #0 {
  %3 = alloca i32, align 4
  %4 = alloca i32, align 4
  %5 = alloca i8**, align 8
  %6 = alloca i32, align 4
  %7 = alloca i32, align 4
  %8 = alloca i32, align 4
  %9 = alloca i32, align 4
  %10 = alloca i32, align 4
  %11 = alloca [100 x i8], align 16
  %12 = alloca [100 x i8], align 16
  store i32 0, i32* %3, align 4
  store i32 %0, i32* %4, align 4
  store i8** %1, i8*** %5, align 8
  store i32 0, i32* %10, align 4
  %13 = getelementptr inbounds [100 x i8], [100 x i8]* %11, i64 0, i64 0
  %14 = getelementptr inbounds [100 x i8], [100 x i8]* %12, i64 0, i64 0
  %15 = call i32 (i8*, ...) @__isoc99_scanf(i8* getelementptr inbounds ([6 x i8], [6 x i8]* @.str, i64 0, i64 0), i8* %13, i8* %14)
  %16 = getelementptr inbounds [100 x i8], [100 x i8]* %11, i64 0, i64 0
  %17 = call i64 @strlen(i8* %16) #3
  %18 = trunc i64 %17 to i32
  store i32 %18, i32* %6, align 4
  %19 = getelementptr inbounds [100 x i8], [100 x i8]* %12, i64 0, i64 0
  %20 = call i64 @strlen(i8* %19) #3
  %21 = trunc i64 %20 to i32
  store i32 %21, i32* %7, align 4
  %22 = load i32, i32* %6, align 4
  %23 = load i32, i32* %7, align 4
  %24 = icmp ne i32 %22, %23
  br i1 %24, label %25, label %27

25:                                               ; preds = %2
  %26 = call i32 (i8*, ...) @printf(i8* getelementptr inbounds ([3 x i8], [3 x i8]* @.str.1, i64 0, i64 0))
  br label %74

27:                                               ; preds = %2
  store i32 0, i32* %8, align 4
  br label %28

28:                                               ; preds = %62, %27
  %29 = load i32, i32* %8, align 4
  %30 = load i32, i32* %6, align 4
  %31 = icmp slt i32 %29, %30
  br i1 %31, label %32, label %65

32:                                               ; preds = %28
  store i32 0, i32* %9, align 4
  br label %33

33:                                               ; preds = %58, %32
  %34 = load i32, i32* %9, align 4
  %35 = load i32, i32* %7, align 4
  %36 = icmp slt i32 %34, %35
  br i1 %36, label %37, label %61

37:                                               ; preds = %33
  %38 = load i32, i32* %8, align 4
  %39 = sext i32 %38 to i64
  %40 = getelementptr inbounds [100 x i8], [100 x i8]* %11, i64 0, i64 %39
  %41 = load i8, i8* %40, align 1
  %42 = sext i8 %41 to i32
  %43 = load i32, i32* %9, align 4
  %44 = sext i32 %43 to i64
  %45 = getelementptr inbounds [100 x i8], [100 x i8]* %12, i64 0, i64 %44
  %46 = load i8, i8* %45, align 1
  %47 = sext i8 %46 to i32
  %48 = icmp eq i32 %42, %47
  br i1 %48, label %49, label %57

49:                                               ; preds = %37
  %50 = load i32, i32* %9, align 4
  %51 = trunc i32 %50 to i8
  %52 = load i32, i32* %9, align 4
  %53 = sext i32 %52 to i64
  %54 = getelementptr inbounds [100 x i8], [100 x i8]* %12, i64 0, i64 %53
  store i8 %51, i8* %54, align 1
  %55 = load i32, i32* %10, align 4
  %56 = add nsw i32 %55, 1
  store i32 %56, i32* %10, align 4
  br label %61

57:                                               ; preds = %37
  br label %58

58:                                               ; preds = %57
  %59 = load i32, i32* %9, align 4
  %60 = add nsw i32 %59, 1
  store i32 %60, i32* %9, align 4
  br label %33

61:                                               ; preds = %49, %33
  br label %62

62:                                               ; preds = %61
  %63 = load i32, i32* %8, align 4
  %64 = add nsw i32 %63, 1
  store i32 %64, i32* %8, align 4
  br label %28

65:                                               ; preds = %28
  %66 = load i32, i32* %10, align 4
  %67 = load i32, i32* %6, align 4
  %68 = icmp eq i32 %66, %67
  br i1 %68, label %69, label %71

69:                                               ; preds = %65
  %70 = call i32 (i8*, ...) @printf(i8* getelementptr inbounds ([4 x i8], [4 x i8]* @.str.2, i64 0, i64 0))
  br label %73

71:                                               ; preds = %65
  %72 = call i32 (i8*, ...) @printf(i8* getelementptr inbounds ([3 x i8], [3 x i8]* @.str.1, i64 0, i64 0))
  br label %73

73:                                               ; preds = %71, %69
  br label %74

74:                                               ; preds = %73, %25
  ret i32 0
}

declare dso_local i32 @__isoc99_scanf(i8*, ...) #1

; Function Attrs: nounwind readonly
declare dso_local i64 @strlen(i8*) #2

declare dso_local i32 @printf(i8*, ...) #1


!llvm.module.flags = !{!0}
!llvm.ident = !{!1}

!0 = !{i32 1, !"wchar_size", i32 4}
!1 = !{!"clang version 10.0.0-4ubuntu1 "}
