; ModuleID = 'source-C-CXX/35/1289.c'
source_filename = "source-C-CXX/35/1289.c"
target datalayout = "e-m:e-p270:32:32-p271:32:32-p272:64:64-i64:64-f80:128-n8:16:32:64-S128"
target triple = "x86_64-pc-linux-gnu"

@.str = private unnamed_addr constant [6 x i8] c"%s %s\00", align 1
@.str.1 = private unnamed_addr constant [3 x i8] c"NO\00", align 1
@.str.2 = private unnamed_addr constant [4 x i8] c"YES\00", align 1

; Function Attrs: nofree nounwind sspstrong uwtable
define dso_local i32 @main(i32 %0, i8** nocapture readnone %1) local_unnamed_addr #0 {
  %3 = alloca [100 x i8], align 16
  %4 = alloca [100 x i8], align 16
  %5 = getelementptr inbounds [100 x i8], [100 x i8]* %3, i64 0, i64 0
  call void @llvm.lifetime.start.p0i8(i64 100, i8* nonnull %5) #4
  %6 = getelementptr inbounds [100 x i8], [100 x i8]* %4, i64 0, i64 0
  call void @llvm.lifetime.start.p0i8(i64 100, i8* nonnull %6) #4
  %7 = call i32 (i8*, ...) @__isoc99_scanf(i8* getelementptr inbounds ([6 x i8], [6 x i8]* @.str, i64 0, i64 0), i8* nonnull %5, i8* nonnull %6)
  %8 = call i64 @strlen(i8* noundef nonnull %5) #5
  %9 = trunc i64 %8 to i32
  %10 = call i64 @strlen(i8* noundef nonnull %6) #5
  %11 = trunc i64 %10 to i32
  %12 = icmp eq i32 %9, %11
  br i1 %12, label %13, label %43

13:                                               ; preds = %2
  %14 = icmp sgt i32 %9, 0
  br i1 %14, label %15, label %39

15:                                               ; preds = %13
  %16 = and i64 %8, 4294967295
  br label %17

17:                                               ; preds = %15, %35
  %18 = phi i64 [ 0, %15 ], [ %37, %35 ]
  %19 = phi i32 [ 0, %15 ], [ %36, %35 ]
  %20 = getelementptr inbounds [100 x i8], [100 x i8]* %3, i64 0, i64 %18
  %21 = load i8, i8* %20, align 1, !tbaa !5
  br label %22

22:                                               ; preds = %17, %27
  %23 = phi i64 [ 0, %17 ], [ %28, %27 ]
  %24 = getelementptr inbounds [100 x i8], [100 x i8]* %4, i64 0, i64 %23
  %25 = load i8, i8* %24, align 1, !tbaa !5
  %26 = icmp eq i8 %21, %25
  br i1 %26, label %30, label %27

27:                                               ; preds = %22
  %28 = add nuw nsw i64 %23, 1
  %29 = icmp eq i64 %28, %16
  br i1 %29, label %35, label %22, !llvm.loop !8

30:                                               ; preds = %22
  %31 = and i64 %23, 4294967295
  %32 = getelementptr inbounds [100 x i8], [100 x i8]* %4, i64 0, i64 %31
  %33 = trunc i64 %23 to i8
  store i8 %33, i8* %32, align 1, !tbaa !5
  %34 = add nsw i32 %19, 1
  br label %35

35:                                               ; preds = %27, %30
  %36 = phi i32 [ %34, %30 ], [ %19, %27 ]
  %37 = add nuw nsw i64 %18, 1
  %38 = icmp eq i64 %37, %16
  br i1 %38, label %39, label %17, !llvm.loop !10

39:                                               ; preds = %35, %13
  %40 = phi i32 [ 0, %13 ], [ %36, %35 ]
  %41 = icmp eq i32 %40, %9
  %42 = select i1 %41, i8* getelementptr inbounds ([4 x i8], [4 x i8]* @.str.2, i64 0, i64 0), i8* getelementptr inbounds ([3 x i8], [3 x i8]* @.str.1, i64 0, i64 0)
  br label %43

43:                                               ; preds = %39, %2
  %44 = phi i8* [ getelementptr inbounds ([3 x i8], [3 x i8]* @.str.1, i64 0, i64 0), %2 ], [ %42, %39 ]
  %45 = call i32 (i8*, ...) @printf(i8* nonnull dereferenceable(1) %44)
  call void @llvm.lifetime.end.p0i8(i64 100, i8* nonnull %6) #4
  call void @llvm.lifetime.end.p0i8(i64 100, i8* nonnull %5) #4
  ret i32 0
}

; Function Attrs: argmemonly mustprogress nofree nosync nounwind willreturn
declare void @llvm.lifetime.start.p0i8(i64 immarg, i8* nocapture) #1

; Function Attrs: nofree nounwind
declare noundef i32 @__isoc99_scanf(i8* nocapture noundef readonly, ...) local_unnamed_addr #2

; Function Attrs: argmemonly mustprogress nofree nounwind readonly willreturn
declare i64 @strlen(i8* nocapture) local_unnamed_addr #3

; Function Attrs: nofree nounwind
declare noundef i32 @printf(i8* nocapture noundef readonly, ...) local_unnamed_addr #2

; Function Attrs: argmemonly mustprogress nofree nosync nounwind willreturn
declare void @llvm.lifetime.end.p0i8(i64 immarg, i8* nocapture) #1


!llvm.module.flags = !{!0, !1, !2, !3}
!llvm.ident = !{!4}

!0 = !{i32 1, !"wchar_size", i32 4}
!1 = !{i32 7, !"PIC Level", i32 2}
!2 = !{i32 7, !"PIE Level", i32 2}
!3 = !{i32 7, !"uwtable", i32 1}
!4 = !{!"clang version 13.0.0"}
!5 = !{!6, !6, i64 0}
!6 = !{!"omnipotent char", !7, i64 0}
!7 = !{!"Simple C/C++ TBAA"}
!8 = distinct !{!8, !9}
!9 = !{!"llvm.loop.mustprogress"}
!10 = distinct !{!10, !9}
